target datalayout = "e-m:e-p270:32:32-p271:32:32-p272:64:64-i64:64-i128:128-f80:128-n8:16:32:64-S128"
target triple = "x86_64-pc-linux-gnu"

%struct._php_ps_globals = type { ptr, ptr, ptr, ptr, ptr, i64, ptr, ptr, ptr, i8, i8, ptr, ptr, ptr, i32, ptr, i32, i32, %struct._php_random_status_state_pcgoneseq128xslrr64, %struct._php_random_algo_with_state, i64, i64, i64, i64, %struct.anon, ptr, i8, i8, i8, i8, i8, i8, i8, i8, ptr, %struct._zval_struct, i64, i64, ptr, ptr, ptr, i64, double, i8, i8, i8, i8, i8, i8, ptr }
%struct._php_random_status_state_pcgoneseq128xslrr64 = type { i128 }
%struct._php_random_algo_with_state = type { ptr, ptr }
%struct.anon = type { %struct._zval_struct, %struct._zval_struct, %struct._zval_struct, %struct._zval_struct, %struct._zval_struct, %struct._zval_struct, %struct._zval_struct, %struct._zval_struct, %struct._zval_struct }
%struct._zval_struct = type { %union._zend_value, %union.anon, %union.anon.3 }
%union._zend_value = type { i64 }
%union.anon = type { i32 }
%union.anon.3 = type { i32 }
%struct._zend_array = type { %struct._zend_refcounted_h, %union.anon.5, i32, %union.anon.7, i32, i32, i32, i32, i64, ptr }
%struct._zend_refcounted_h = type { i32, %union.anon.4 }
%union.anon.4 = type { i32 }
%union.anon.5 = type { i32 }
%union.anon.7 = type { ptr }
%struct._php_core_globals = type { i64, i8, i8, i8, i8, i8, i8, i8, i8, ptr, ptr, i64, i64, i64, ptr, ptr, ptr, ptr, ptr, i8, ptr, ptr, ptr, ptr, i64, ptr, ptr, ptr, ptr, ptr, ptr, ptr, %struct._arg_separators, ptr, %struct._zend_array, i16, i8, i8, %struct._zend_llist, [6 x %struct._zval_struct], i8, i8, i8, i8, i8, ptr, ptr, i64, [8 x i8], i8, i8, i8, i8, i8, i8, i32, i32, ptr, ptr, ptr, ptr, i64, i64, ptr, i64, ptr, ptr, i8, i8, i8, i8, i8, i8, i64, ptr, i64, i64 }
%struct._arg_separators = type { ptr, ptr }
%struct._zend_llist = type { ptr, ptr, i64, i64, ptr, i8, ptr }
%struct._sapi_globals_struct = type { ptr, %struct.sapi_request_info, %struct.sapi_headers_struct, i64, i8, i8, %struct.stat, ptr, ptr, ptr, i64, i32, i8, double, %struct._zend_array, %struct._zval_struct, %struct._zend_fcall_info_cache, %struct.sapi_request_parse_body_context }
%struct.sapi_request_info = type { ptr, ptr, ptr, i64, ptr, ptr, ptr, ptr, i8, i8, i8, ptr, ptr, ptr, ptr, ptr, ptr, ptr, i32, i32, ptr, i32 }
%struct.sapi_headers_struct = type { %struct._zend_llist, i32, i8, ptr, ptr }
%struct.stat = type { i64, i64, i64, i32, i32, i32, i32, i64, i64, i64, i64, %struct.timespec, %struct.timespec, %struct.timespec, [3 x i64] }
%struct.timespec = type { i64, i64 }
%struct._zend_fcall_info_cache = type { ptr, ptr, ptr, ptr, ptr }
%struct.sapi_request_parse_body_context = type { i8, [5 x %struct.anon.9] }
%struct.anon.9 = type { i8, i64 }
%struct._zend_string = type { %struct._zend_refcounted_h, i64, i64, [1 x i8] }

@ps_globals = global %struct._php_ps_globals zeroinitializer, align 16
@core_globals = external global %struct._php_core_globals, align 8
@sapi_globals = external global %struct._sapi_globals_struct, align 8
@.str.237 = private unnamed_addr constant [64 x i8] c"Session ini settings cannot be changed when a session is active\00", align 1
@.str.238 = private unnamed_addr constant [76 x i8] c"Session ini settings cannot be changed after headers have already been sent\00", align 1

; Function Attrs: nounwind uwtable
define internal i32 @OnUpdateSaveDir(ptr noundef %0, ptr noundef %1, ptr noundef %2, ptr noundef %3, ptr noundef %4, i32 noundef %5) #0 {
  %7 = alloca i32, align 4
  %8 = alloca ptr, align 8
  %9 = alloca ptr, align 8
  %10 = alloca ptr, align 8
  %11 = alloca ptr, align 8
  %12 = alloca ptr, align 8
  %13 = alloca i32, align 4
  %14 = alloca ptr, align 8
  %15 = alloca ptr, align 8
  store ptr %0, ptr %8, align 8
  store ptr %1, ptr %9, align 8
  store ptr %2, ptr %10, align 8
  store ptr %3, ptr %11, align 8
  store ptr %4, ptr %12, align 8
  store i32 %5, ptr %13, align 4
  %16 = load i32, ptr getelementptr inbounds (%struct._php_ps_globals, ptr @ps_globals, i32 0, i32 14), align 8
  %17 = icmp eq i32 %16, 2
  br i1 %17, label %18, label %19

18:                                               ; preds = %6
  call void (ptr, i32, ptr, ...) @php_error_docref(ptr noundef null, i32 noundef 2, ptr noundef @.str.237)
  store i32 -1, ptr %7, align 4
  br label %85

19:                                               ; preds = %6
  %20 = load i8, ptr getelementptr inbounds (%struct._sapi_globals_struct, ptr @sapi_globals, i32 0, i32 5), align 1
  %21 = zext i8 %20 to i32
  %22 = icmp ne i32 %21, 0
  br i1 %22, label %23, label %27

23:                                               ; preds = %19
  %24 = load i32, ptr %13, align 4
  %25 = icmp ne i32 %24, 8
  br i1 %25, label %26, label %27

26:                                               ; preds = %23
  call void (ptr, i32, ptr, ...) @php_error_docref(ptr noundef null, i32 noundef 2, ptr noundef @.str.238)
  store i32 -1, ptr %7, align 4
  br label %85

27:                                               ; preds = %23, %19
  %28 = load i32, ptr %13, align 4
  %29 = icmp eq i32 %28, 16
  br i1 %29, label %33, label %30

30:                                               ; preds = %27
  %31 = load i32, ptr %13, align 4
  %32 = icmp eq i32 %31, 32
  br i1 %32, label %33, label %77

33:                                               ; preds = %30, %27
  %34 = load ptr, ptr %9, align 8
  %35 = getelementptr inbounds %struct._zend_string, ptr %34, i32 0, i32 3
  %36 = getelementptr inbounds [1 x i8], ptr %35, i64 0, i64 0
  %37 = load ptr, ptr %9, align 8
  %38 = getelementptr inbounds %struct._zend_string, ptr %37, i32 0, i32 2
  %39 = load i64, ptr %38, align 8
  %40 = call ptr @memchr(ptr noundef %36, i32 noundef 0, i64 noundef %39) #16
  %41 = icmp ne ptr %40, null
  br i1 %41, label %42, label %43

42:                                               ; preds = %33
  store i32 -1, ptr %7, align 4
  br label %85

43:                                               ; preds = %33
  %44 = load ptr, ptr %9, align 8
  %45 = getelementptr inbounds %struct._zend_string, ptr %44, i32 0, i32 3
  %46 = getelementptr inbounds [1 x i8], ptr %45, i64 0, i64 0
  %47 = call ptr @strchr(ptr noundef %46, i32 noundef 59) #16
  store ptr %47, ptr %14, align 8
  %48 = icmp ne ptr %47, null
  br i1 %48, label %49, label %59

49:                                               ; preds = %43
  %50 = load ptr, ptr %14, align 8
  %51 = getelementptr inbounds i8, ptr %50, i32 1
  store ptr %51, ptr %14, align 8
  %52 = load ptr, ptr %14, align 8
  %53 = call ptr @strchr(ptr noundef %52, i32 noundef 59) #16
  store ptr %53, ptr %15, align 8
  %54 = icmp ne ptr %53, null
  br i1 %54, label %55, label %58

55:                                               ; preds = %49
  %56 = load ptr, ptr %15, align 8
  %57 = getelementptr inbounds i8, ptr %56, i64 1
  store ptr %57, ptr %14, align 8
  br label %58

58:                                               ; preds = %55, %49
  br label %63

59:                                               ; preds = %43
  %60 = load ptr, ptr %9, align 8
  %61 = getelementptr inbounds %struct._zend_string, ptr %60, i32 0, i32 3
  %62 = getelementptr inbounds [1 x i8], ptr %61, i64 0, i64 0
  store ptr %62, ptr %14, align 8
  br label %63

63:                                               ; preds = %59, %58
  %64 = load ptr, ptr getelementptr inbounds (%struct._php_core_globals, ptr @core_globals, i32 0, i32 18), align 8
  %65 = icmp ne ptr %64, null
  br i1 %65, label %66, label %76

66:                                               ; preds = %63
  %67 = load ptr, ptr %14, align 8
  %68 = load i8, ptr %67, align 1
  %69 = sext i8 %68 to i32
  %70 = icmp ne i32 %69, 0
  br i1 %70, label %71, label %76

71:                                               ; preds = %66
  %72 = load ptr, ptr %14, align 8
  %73 = call i32 @php_check_open_basedir(ptr noundef %72)
  %74 = icmp ne i32 %73, 0
  br i1 %74, label %75, label %76

75:                                               ; preds = %71
  store i32 -1, ptr %7, align 4
  br label %85

76:                                               ; preds = %71, %66, %63
  br label %77

77:                                               ; preds = %76, %30
  %78 = load ptr, ptr %8, align 8
  %79 = load ptr, ptr %9, align 8
  %80 = load ptr, ptr %10, align 8
  %81 = load ptr, ptr %11, align 8
  %82 = load ptr, ptr %12, align 8
  %83 = load i32, ptr %13, align 4
  %84 = call i32 @OnUpdateString(ptr noundef %78, ptr noundef %79, ptr noundef %80, ptr noundef %81, ptr noundef %82, i32 noundef %83)
  store i32 %84, ptr %7, align 4
  br label %85

85:                                               ; preds = %77, %75, %42, %26, %18
  %86 = load i32, ptr %7, align 4
  ret i32 %86
}