; Function Attrs: nounwind uwtable
define internal i32 @OnUpdateSaveDir(ptr noundef %0, ptr noundef %1, ptr noundef %2, ptr noundef %3, ptr noundef %4, i32 noundef %5) #0 {
  %7 = load i32, ptr getelementptr inbounds (%struct._php_ps_globals, ptr @ps_globals, i64 0, i32 14), align 8
  %8 = icmp eq i32 %7, 2
  br i1 %8, label %9, label %10

9:                                                ; preds = %6
  tail call void (ptr, i32, ptr, ...) @php_error_docref(ptr noundef null, i32 noundef 2, ptr noundef nonnull @.str.237) #23
  br label %35

10:                                               ; preds = %6
  %11 = load i8, ptr getelementptr inbounds (%struct._sapi_globals_struct, ptr @sapi_globals, i64 0, i32 5), align 1
  %12 = icmp ne i8 %11, 0
  %13 = icmp ne i32 %5, 8
  %or.cond = and i1 %13, %12
  br i1 %or.cond, label %14, label %15

14:                                               ; preds = %10
  tail call void (ptr, i32, ptr, ...) @php_error_docref(ptr noundef null, i32 noundef 2, ptr noundef nonnull @.str.238) #23
  br label %35

15:                                               ; preds = %10
  switch i32 %5, label %33 [
    i32 32, label %16
    i32 16, label %16
  ]

16:                                               ; preds = %15, %15
  %17 = getelementptr inbounds i8, ptr %1, i64 24
  %18 = getelementptr inbounds i8, ptr %1, i64 16
  %19 = load i64, ptr %18, align 8
  %20 = tail call ptr @memchr(ptr noundef nonnull %17, i32 noundef 0, i64 noundef %19) #26
  %.not = icmp eq ptr %20, null
  br i1 %.not, label %21, label %35

21:                                               ; preds = %16
  %22 = tail call ptr @strchr(ptr noundef nonnull dereferenceable(1) %17, i32 noundef 59) #26
  %.not24 = icmp eq ptr %22, null
  br i1 %.not24, label %27, label %23

23:                                               ; preds = %21
  %24 = getelementptr inbounds i8, ptr %22, i64 1
  %25 = tail call ptr @strchr(ptr noundef nonnull dereferenceable(1) %24, i32 noundef 59) #26
  %.not25 = icmp eq ptr %25, null
  %26 = getelementptr inbounds i8, ptr %25, i64 1
  %spec.select = select i1 %.not25, ptr %24, ptr %26
  br label %27

27:                                               ; preds = %23, %21
  %.021 = phi ptr [ %spec.select, %23 ], [ %17, %21 ]
  %28 = load ptr, ptr getelementptr inbounds (%struct._php_core_globals, ptr @core_globals, i64 0, i32 18), align 8
  %.not26 = icmp eq ptr %28, null
  br i1 %.not26, label %33, label %29

29:                                               ; preds = %27
  %30 = load i8, ptr %.021, align 1
  %.not27 = icmp eq i8 %30, 0
  br i1 %.not27, label %33, label %31

31:                                               ; preds = %29
  %32 = tail call i32 @php_check_open_basedir(ptr noundef nonnull %.021) #23
  %.not28 = icmp eq i32 %32, 0
  br i1 %.not28, label %33, label %35

33:                                               ; preds = %15, %27, %29, %31
  %34 = tail call i32 @OnUpdateString(ptr noundef %0, ptr noundef %1, ptr noundef %2, ptr noundef %3, ptr noundef %4, i32 noundef %5) #23
  br label %35

35:                                               ; preds = %31, %16, %33, %14, %9
  %.0 = phi i32 [ -1, %9 ], [ -1, %14 ], [ %34, %33 ], [ -1, %16 ], [ -1, %31 ]
  ret i32 %.0
}